; Function Attrs: nounwind uwtable
define dso_local i32 @RelationGetReplicaIndex(ptr noundef captures(none) %0) local_unnamed_addr #0 {
  %2 = getelementptr inbounds nuw i8, ptr %0, i64 35
  %3 = load i8, ptr %2, align 1, !range !6, !noundef !7
  %4 = trunc nuw i8 %3 to i1
  br i1 %4, label %7, label %5

5:                                                ; preds = %1
  %6 = tail call ptr @RelationGetIndexList(ptr noundef nonnull %0)
  tail call void @list_free(ptr noundef %6) #13
  br label %7

7:                                                ; preds = %5, %1
  %8 = getelementptr inbounds nuw i8, ptr %0, i64 232
  %9 = load i32, ptr %8, align 8
  ret i32 %9
}